target datalayout = "e-m:e-p270:32:32-p271:32:32-p272:64:64-i64:64-i128:128-f80:128-n8:16:32:64-S128"
target triple = "x86_64-pc-linux-gnu"

%"class.OpenSubdiv::v3_6_0::Far::PatchDescriptor" = type { i32 }
%"class.OpenSubdiv::v3_6_0::Far::PatchTable" = type <{ i32, i32, %"class.std::vector", %"class.std::vector.0", %"class.std::vector.5", %"class.std::vector.10", %"class.std::vector.0", %"class.OpenSubdiv::v3_6_0::Far::PatchTable::StencilTablePtr", %"class.OpenSubdiv::v3_6_0::Far::PatchTable::StencilTablePtr", %"class.OpenSubdiv::v3_6_0::Far::PatchDescriptor", [4 x i8], %"class.std::vector.0", %"class.std::vector.15", %"class.std::vector.20", %"class.std::vector.0", %"class.std::vector.25", i8, [7 x i8] }>
%"class.std::vector" = type { %"struct.std::_Vector_base" }
%"struct.std::_Vector_base" = type { %"struct.std::_Vector_base<OpenSubdiv::v3_6_0::Far::PatchTable::PatchArray, std::allocator<OpenSubdiv::v3_6_0::Far::PatchTable::PatchArray>>::_Vector_impl" }
%"struct.std::_Vector_base<OpenSubdiv::v3_6_0::Far::PatchTable::PatchArray, std::allocator<OpenSubdiv::v3_6_0::Far::PatchTable::PatchArray>>::_Vector_impl" = type { %"struct.std::_Vector_base<OpenSubdiv::v3_6_0::Far::PatchTable::PatchArray, std::allocator<OpenSubdiv::v3_6_0::Far::PatchTable::PatchArray>>::_Vector_impl_data" }
%"struct.std::_Vector_base<OpenSubdiv::v3_6_0::Far::PatchTable::PatchArray, std::allocator<OpenSubdiv::v3_6_0::Far::PatchTable::PatchArray>>::_Vector_impl_data" = type { ptr, ptr, ptr }
%"class.std::vector.5" = type { %"struct.std::_Vector_base.6" }
%"struct.std::_Vector_base.6" = type { %"struct.std::_Vector_base<OpenSubdiv::v3_6_0::Far::PatchParam, std::allocator<OpenSubdiv::v3_6_0::Far::PatchParam>>::_Vector_impl" }
%"struct.std::_Vector_base<OpenSubdiv::v3_6_0::Far::PatchParam, std::allocator<OpenSubdiv::v3_6_0::Far::PatchParam>>::_Vector_impl" = type { %"struct.std::_Vector_base<OpenSubdiv::v3_6_0::Far::PatchParam, std::allocator<OpenSubdiv::v3_6_0::Far::PatchParam>>::_Vector_impl_data" }
%"struct.std::_Vector_base<OpenSubdiv::v3_6_0::Far::PatchParam, std::allocator<OpenSubdiv::v3_6_0::Far::PatchParam>>::_Vector_impl_data" = type { ptr, ptr, ptr }
%"class.std::vector.10" = type { %"struct.std::_Vector_base.11" }
%"struct.std::_Vector_base.11" = type { %"struct.std::_Vector_base<unsigned int, std::allocator<unsigned int>>::_Vector_impl" }
%"struct.std::_Vector_base<unsigned int, std::allocator<unsigned int>>::_Vector_impl" = type { %"struct.std::_Vector_base<unsigned int, std::allocator<unsigned int>>::_Vector_impl_data" }
%"struct.std::_Vector_base<unsigned int, std::allocator<unsigned int>>::_Vector_impl_data" = type { ptr, ptr, ptr }
%"class.OpenSubdiv::v3_6_0::Far::PatchTable::StencilTablePtr" = type { %union.anon }
%union.anon = type { ptr }
%"class.std::vector.15" = type { %"struct.std::_Vector_base.16" }
%"struct.std::_Vector_base.16" = type { %"struct.std::_Vector_base<OpenSubdiv::v3_6_0::Far::PatchTable::FVarPatchChannel, std::allocator<OpenSubdiv::v3_6_0::Far::PatchTable::FVarPatchChannel>>::_Vector_impl" }
%"struct.std::_Vector_base<OpenSubdiv::v3_6_0::Far::PatchTable::FVarPatchChannel, std::allocator<OpenSubdiv::v3_6_0::Far::PatchTable::FVarPatchChannel>>::_Vector_impl" = type { %"struct.std::_Vector_base<OpenSubdiv::v3_6_0::Far::PatchTable::FVarPatchChannel, std::allocator<OpenSubdiv::v3_6_0::Far::PatchTable::FVarPatchChannel>>::_Vector_impl_data" }
%"struct.std::_Vector_base<OpenSubdiv::v3_6_0::Far::PatchTable::FVarPatchChannel, std::allocator<OpenSubdiv::v3_6_0::Far::PatchTable::FVarPatchChannel>>::_Vector_impl_data" = type { ptr, ptr, ptr }
%"class.std::vector.20" = type { %"struct.std::_Vector_base.21" }
%"struct.std::_Vector_base.21" = type { %"struct.std::_Vector_base<OpenSubdiv::v3_6_0::Far::PatchTable::StencilTablePtr, std::allocator<OpenSubdiv::v3_6_0::Far::PatchTable::StencilTablePtr>>::_Vector_impl" }
%"struct.std::_Vector_base<OpenSubdiv::v3_6_0::Far::PatchTable::StencilTablePtr, std::allocator<OpenSubdiv::v3_6_0::Far::PatchTable::StencilTablePtr>>::_Vector_impl" = type { %"struct.std::_Vector_base<OpenSubdiv::v3_6_0::Far::PatchTable::StencilTablePtr, std::allocator<OpenSubdiv::v3_6_0::Far::PatchTable::StencilTablePtr>>::_Vector_impl_data" }
%"struct.std::_Vector_base<OpenSubdiv::v3_6_0::Far::PatchTable::StencilTablePtr, std::allocator<OpenSubdiv::v3_6_0::Far::PatchTable::StencilTablePtr>>::_Vector_impl_data" = type { ptr, ptr, ptr }
%"class.std::vector.0" = type { %"struct.std::_Vector_base.1" }
%"struct.std::_Vector_base.1" = type { %"struct.std::_Vector_base<int, std::allocator<int>>::_Vector_impl" }
%"struct.std::_Vector_base<int, std::allocator<int>>::_Vector_impl" = type { %"struct.std::_Vector_base<int, std::allocator<int>>::_Vector_impl_data" }
%"struct.std::_Vector_base<int, std::allocator<int>>::_Vector_impl_data" = type { ptr, ptr, ptr }
%"class.std::vector.25" = type { %"struct.std::_Vector_base.26" }
%"struct.std::_Vector_base.26" = type { %"struct.std::_Vector_base<float, std::allocator<float>>::_Vector_impl" }
%"struct.std::_Vector_base<float, std::allocator<float>>::_Vector_impl" = type { %"struct.std::_Vector_base<float, std::allocator<float>>::_Vector_impl_data" }
%"struct.std::_Vector_base<float, std::allocator<float>>::_Vector_impl_data" = type { ptr, ptr, ptr }
%"class.OpenSubdiv::v3_6_0::Far::PatchTable::PatchHandle" = type { i32, i32, i32 }
%"struct.OpenSubdiv::v3_6_0::Far::PatchParam" = type { i64 }

; Function Attrs: mustprogress nounwind uwtable
define linkonce_odr noundef nonnull align 4 dereferenceable(8) ptr @_ZNKSt6vectorIN10OpenSubdiv6v3_6_03Far10PatchParamESaIS3_EEixEm(ptr noundef nonnull align 8 dereferenceable(24) %0, i64 noundef %1) #5 comdat align 2 {
  %3 = alloca ptr, align 8
  %4 = alloca i64, align 8
  store ptr %0, ptr %3, align 8
  store i64 %1, ptr %4, align 8
  %5 = load ptr, ptr %3, align 8
  %6 = getelementptr inbounds nuw %"struct.std::_Vector_base.6", ptr %5, i32 0, i32 0
  %7 = getelementptr inbounds nuw %"struct.std::_Vector_base<OpenSubdiv::v3_6_0::Far::PatchParam, std::allocator<OpenSubdiv::v3_6_0::Far::PatchParam>>::_Vector_impl_data", ptr %6, i32 0, i32 0
  %8 = load ptr, ptr %7, align 8
  %9 = load i64, ptr %4, align 8
  %10 = getelementptr inbounds %"struct.OpenSubdiv::v3_6_0::Far::PatchParam", ptr %8, i64 %9
  ret ptr %10
}

; Function Attrs: mustprogress nounwind uwtable
define i64 @_ZNK10OpenSubdiv6v3_6_03Far10PatchTable13GetPatchParamERKNS2_11PatchHandleE(ptr noundef nonnull align 8 dereferenceable(273) %0, ptr noundef nonnull align 4 dereferenceable(12) %1) #5 align 2 {
  %3 = alloca %"struct.OpenSubdiv::v3_6_0::Far::PatchParam", align 4
  %4 = alloca ptr, align 8
  %5 = alloca ptr, align 8
  store ptr %0, ptr %4, align 8
  store ptr %1, ptr %5, align 8
  %6 = load ptr, ptr %4, align 8
  %7 = getelementptr inbounds nuw %"class.OpenSubdiv::v3_6_0::Far::PatchTable", ptr %6, i32 0, i32 4
  %8 = load ptr, ptr %5, align 8
  %9 = getelementptr inbounds nuw %"class.OpenSubdiv::v3_6_0::Far::PatchTable::PatchHandle", ptr %8, i32 0, i32 1
  %10 = load i32, ptr %9, align 4
  %11 = sext i32 %10 to i64
  %12 = call noundef nonnull align 4 dereferenceable(8) ptr @_ZNKSt6vectorIN10OpenSubdiv6v3_6_03Far10PatchParamESaIS3_EEixEm(ptr noundef nonnull align 8 dereferenceable(24) %7, i64 noundef %11) #3
  call void @llvm.memcpy.p0.p0.i64(ptr align 4 %3, ptr align 4 %12, i64 8, i1 false)
  %13 = getelementptr inbounds nuw %"struct.OpenSubdiv::v3_6_0::Far::PatchParam", ptr %3, i32 0, i32 0
  %14 = load i64, ptr %13, align 4
  ret i64 %14
}